target datalayout = "e-m:e-p270:32:32-p271:32:32-p272:64:64-i64:64-i128:128-f80:128-n8:16:32:64-S128"
target triple = "x86_64-pc-linux-gnu"

%"struct.faiss::MatrixStats::PerDimStats" = type { i64, i64, i64, i64, float, float, double, double, i64, double, double }

; Function Attrs: mustprogress nounwind uwtable
define linkonce_odr noundef zeroext i1 @_ZSt8isfinitef(float noundef %0) #1 comdat {
  %2 = alloca float, align 4
  store float %0, ptr %2, align 4, !tbaa !9
  %3 = load float, ptr %2, align 4, !tbaa !9
  %4 = call i1 @llvm.is.fpclass.f32(float %3, i32 504)
  ret i1 %4
}

; Function Attrs: mustprogress nounwind uwtable
define linkonce_odr noundef zeroext i1 @_ZSt5isnanf(float noundef %0) #1 comdat {
  %2 = alloca float, align 4
  store float %0, ptr %2, align 4, !tbaa !9
  %3 = load float, ptr %2, align 4, !tbaa !9
  %4 = call i1 @llvm.is.fpclass.f32(float %3, i32 3)
  ret i1 %4
}

; Function Attrs: mustprogress uwtable
define void @_ZN5faiss11MatrixStats11PerDimStats3addEf(ptr noundef nonnull align 8 dereferenceable(80) %0, float noundef %1) #0 align 2 {
  %3 = alloca ptr, align 8
  %4 = alloca float, align 4
  store ptr %0, ptr %3, align 8, !tbaa !4
  store float %1, ptr %4, align 4, !tbaa !9
  %5 = load ptr, ptr %3, align 8
  %6 = getelementptr inbounds nuw %"struct.faiss::MatrixStats::PerDimStats", ptr %5, i32 0, i32 0
  %7 = load i64, ptr %6, align 8, !tbaa !11
  %8 = add i64 %7, 1
  store i64 %8, ptr %6, align 8, !tbaa !11
  %9 = load float, ptr %4, align 4, !tbaa !9
  %10 = call noundef zeroext i1 @_ZSt5isnanf(float noundef %9)
  br i1 %10, label %11, label %15

11:                                               ; preds = %2
  %12 = getelementptr inbounds nuw %"struct.faiss::MatrixStats::PerDimStats", ptr %5, i32 0, i32 1
  %13 = load i64, ptr %12, align 8, !tbaa !15
  %14 = add i64 %13, 1
  store i64 %14, ptr %12, align 8, !tbaa !15
  br label %58

15:                                               ; preds = %2
  %16 = load float, ptr %4, align 4, !tbaa !9
  %17 = call noundef zeroext i1 @_ZSt8isfinitef(float noundef %16)
  br i1 %17, label %22, label %18

18:                                               ; preds = %15
  %19 = getelementptr inbounds nuw %"struct.faiss::MatrixStats::PerDimStats", ptr %5, i32 0, i32 2
  %20 = load i64, ptr %19, align 8, !tbaa !16
  %21 = add i64 %20, 1
  store i64 %21, ptr %19, align 8, !tbaa !16
  br label %58

22:                                               ; preds = %15
  %23 = load float, ptr %4, align 4, !tbaa !9
  %24 = fcmp oeq float %23, 0.000000e+00
  br i1 %24, label %25, label %29

25:                                               ; preds = %22
  %26 = getelementptr inbounds nuw %"struct.faiss::MatrixStats::PerDimStats", ptr %5, i32 0, i32 3
  %27 = load i64, ptr %26, align 8, !tbaa !17
  %28 = add i64 %27, 1
  store i64 %28, ptr %26, align 8, !tbaa !17
  br label %29

29:                                               ; preds = %25, %22
  %30 = load float, ptr %4, align 4, !tbaa !9
  %31 = getelementptr inbounds nuw %"struct.faiss::MatrixStats::PerDimStats", ptr %5, i32 0, i32 4
  %32 = load float, ptr %31, align 8, !tbaa !18
  %33 = fcmp olt float %30, %32
  br i1 %33, label %34, label %37

34:                                               ; preds = %29
  %35 = load float, ptr %4, align 4, !tbaa !9
  %36 = getelementptr inbounds nuw %"struct.faiss::MatrixStats::PerDimStats", ptr %5, i32 0, i32 4
  store float %35, ptr %36, align 8, !tbaa !18
  br label %37

37:                                               ; preds = %34, %29
  %38 = load float, ptr %4, align 4, !tbaa !9
  %39 = getelementptr inbounds nuw %"struct.faiss::MatrixStats::PerDimStats", ptr %5, i32 0, i32 5
  %40 = load float, ptr %39, align 4, !tbaa !19
  %41 = fcmp ogt float %38, %40
  br i1 %41, label %42, label %45

42:                                               ; preds = %37
  %43 = load float, ptr %4, align 4, !tbaa !9
  %44 = getelementptr inbounds nuw %"struct.faiss::MatrixStats::PerDimStats", ptr %5, i32 0, i32 5
  store float %43, ptr %44, align 4, !tbaa !19
  br label %45

45:                                               ; preds = %42, %37
  %46 = load float, ptr %4, align 4, !tbaa !9
  %47 = fpext float %46 to double
  %48 = getelementptr inbounds nuw %"struct.faiss::MatrixStats::PerDimStats", ptr %5, i32 0, i32 6
  %49 = load double, ptr %48, align 8, !tbaa !20
  %50 = fadd double %49, %47
  store double %50, ptr %48, align 8, !tbaa !20
  %51 = load float, ptr %4, align 4, !tbaa !9
  %52 = fpext float %51 to double
  %53 = load float, ptr %4, align 4, !tbaa !9
  %54 = fpext float %53 to double
  %55 = getelementptr inbounds nuw %"struct.faiss::MatrixStats::PerDimStats", ptr %5, i32 0, i32 7
  %56 = load double, ptr %55, align 8, !tbaa !21
  %57 = call double @llvm.fmuladd.f64(double %52, double %54, double %56)
  store double %57, ptr %55, align 8, !tbaa !21
  br label %58

58:                                               ; preds = %45, %18, %11
  ret void
}