; Function Attrs: mustprogress nofree norecurse nosync nounwind willreturn memory(argmem: readwrite) uwtable
define void @_ZN5faiss11MatrixStats11PerDimStats3addEf(ptr noundef nonnull align 8 captures(none) dereferenceable(80) %0, float noundef %1) local_unnamed_addr #0 align 2 {
  %3 = load i64, ptr %0, align 8, !tbaa !4
  %4 = add i64 %3, 1
  store i64 %4, ptr %0, align 8, !tbaa !4
  %5 = fcmp uno float %1, 0.000000e+00
  br i1 %5, label %6, label %10

6:                                                ; preds = %2
  %7 = getelementptr inbounds nuw i8, ptr %0, i64 8
  %8 = load i64, ptr %7, align 8, !tbaa !11
  %9 = add i64 %8, 1
  store i64 %9, ptr %7, align 8, !tbaa !11
  br label %41

10:                                               ; preds = %2
  %11 = tail call float @llvm.fabs.f32(float %1)
  %12 = fcmp ueq float %11, 0x7FF0000000000000
  br i1 %12, label %13, label %17

13:                                               ; preds = %10
  %14 = getelementptr inbounds nuw i8, ptr %0, i64 16
  %15 = load i64, ptr %14, align 8, !tbaa !12
  %16 = add i64 %15, 1
  store i64 %16, ptr %14, align 8, !tbaa !12
  br label %41

17:                                               ; preds = %10
  %18 = fcmp oeq float %1, 0.000000e+00
  br i1 %18, label %19, label %23

19:                                               ; preds = %17
  %20 = getelementptr inbounds nuw i8, ptr %0, i64 24
  %21 = load i64, ptr %20, align 8, !tbaa !13
  %22 = add i64 %21, 1
  store i64 %22, ptr %20, align 8, !tbaa !13
  br label %23

23:                                               ; preds = %19, %17
  %24 = getelementptr inbounds nuw i8, ptr %0, i64 32
  %25 = load float, ptr %24, align 8, !tbaa !14
  %26 = fcmp olt float %1, %25
  br i1 %26, label %27, label %28

27:                                               ; preds = %23
  store float %1, ptr %24, align 8, !tbaa !14
  br label %28

28:                                               ; preds = %27, %23
  %29 = getelementptr inbounds nuw i8, ptr %0, i64 36
  %30 = load float, ptr %29, align 4, !tbaa !15
  %31 = fcmp ogt float %1, %30
  br i1 %31, label %32, label %33

32:                                               ; preds = %28
  store float %1, ptr %29, align 4, !tbaa !15
  br label %33

33:                                               ; preds = %32, %28
  %34 = fpext float %1 to double
  %35 = getelementptr inbounds nuw i8, ptr %0, i64 40
  %36 = load double, ptr %35, align 8, !tbaa !16
  %37 = fadd double %36, %34
  store double %37, ptr %35, align 8, !tbaa !16
  %38 = getelementptr inbounds nuw i8, ptr %0, i64 48
  %39 = load double, ptr %38, align 8, !tbaa !17
  %40 = tail call double @llvm.fmuladd.f64(double %34, double %34, double %39)
  store double %40, ptr %38, align 8, !tbaa !17
  br label %41

41:                                               ; preds = %33, %13, %6
  ret void
}